target datalayout = "e-m:e-p270:32:32-p271:32:32-p272:64:64-i64:64-i128:128-f80:128-n8:16:32:64-S128"
target triple = "x86_64-unknown-linux-gnu"

%class.btVector3 = type { [4 x float] }
%class.btMatrix3x3 = type { [3 x %class.btVector3] }
%"struct.btSoftBody::Body" = type { ptr, ptr, ptr }
%"struct.btSoftBody::Joint" = type <{ ptr, [2 x %"struct.btSoftBody::Body"], [2 x %class.btVector3], float, float, float, %class.btVector3, %class.btVector3, %class.btMatrix3x3, i8, [3 x i8] }>

; Function Attrs: mustprogress nounwind uwtable
define linkonce_odr dso_local void @_ZN9btVector3C2ERKfS1_S1_(ptr noundef nonnull align 4 dereferenceable(16) %this, ptr noundef nonnull align 4 dereferenceable(4) %_x, ptr noundef nonnull align 4 dereferenceable(4) %_y, ptr noundef nonnull align 4 dereferenceable(4) %_z) unnamed_addr #1 comdat align 2 {
entry:
  %this.addr = alloca ptr, align 8
  %_x.addr = alloca ptr, align 8
  %_y.addr = alloca ptr, align 8
  %_z.addr = alloca ptr, align 8
  store ptr %this, ptr %this.addr, align 8
  store ptr %_x, ptr %_x.addr, align 8
  store ptr %_y, ptr %_y.addr, align 8
  store ptr %_z, ptr %_z.addr, align 8
  %this1 = load ptr, ptr %this.addr, align 8
  %0 = load ptr, ptr %_x.addr, align 8
  %1 = load float, ptr %0, align 4
  %m_floats = getelementptr inbounds %class.btVector3, ptr %this1, i32 0, i32 0
  %arrayidx = getelementptr inbounds [4 x float], ptr %m_floats, i64 0, i64 0
  store float %1, ptr %arrayidx, align 4
  %2 = load ptr, ptr %_y.addr, align 8
  %3 = load float, ptr %2, align 4
  %m_floats2 = getelementptr inbounds %class.btVector3, ptr %this1, i32 0, i32 0
  %arrayidx3 = getelementptr inbounds [4 x float], ptr %m_floats2, i64 0, i64 1
  store float %3, ptr %arrayidx3, align 4
  %4 = load ptr, ptr %_z.addr, align 8
  %5 = load float, ptr %4, align 4
  %m_floats4 = getelementptr inbounds %class.btVector3, ptr %this1, i32 0, i32 0
  %arrayidx5 = getelementptr inbounds [4 x float], ptr %m_floats4, i64 0, i64 2
  store float %5, ptr %arrayidx5, align 4
  %m_floats6 = getelementptr inbounds %class.btVector3, ptr %this1, i32 0, i32 0
  %arrayidx7 = getelementptr inbounds [4 x float], ptr %m_floats6, i64 0, i64 3
  store float 0.000000e+00, ptr %arrayidx7, align 4
  ret void
}

; Function Attrs: mustprogress uwtable
define linkonce_odr dso_local { <2 x float>, <2 x float> } @_ZngRK9btVector3(ptr noundef nonnull align 4 dereferenceable(16) %v) #5 comdat {
entry:
  %retval = alloca %class.btVector3, align 4
  %v.addr = alloca ptr, align 8
  %ref.tmp = alloca float, align 4
  %ref.tmp1 = alloca float, align 4
  %ref.tmp5 = alloca float, align 4
  store ptr %v, ptr %v.addr, align 8
  %0 = load ptr, ptr %v.addr, align 8
  %m_floats = getelementptr inbounds %class.btVector3, ptr %0, i32 0, i32 0
  %arrayidx = getelementptr inbounds [4 x float], ptr %m_floats, i64 0, i64 0
  %1 = load float, ptr %arrayidx, align 4
  %fneg = fneg float %1
  store float %fneg, ptr %ref.tmp, align 4
  %2 = load ptr, ptr %v.addr, align 8
  %m_floats2 = getelementptr inbounds %class.btVector3, ptr %2, i32 0, i32 0
  %arrayidx3 = getelementptr inbounds [4 x float], ptr %m_floats2, i64 0, i64 1
  %3 = load float, ptr %arrayidx3, align 4
  %fneg4 = fneg float %3
  store float %fneg4, ptr %ref.tmp1, align 4
  %4 = load ptr, ptr %v.addr, align 8
  %m_floats6 = getelementptr inbounds %class.btVector3, ptr %4, i32 0, i32 0
  %arrayidx7 = getelementptr inbounds [4 x float], ptr %m_floats6, i64 0, i64 2
  %5 = load float, ptr %arrayidx7, align 4
  %fneg8 = fneg float %5
  store float %fneg8, ptr %ref.tmp5, align 4
  call void @_ZN9btVector3C2ERKfS1_S1_(ptr noundef nonnull align 4 dereferenceable(16) %retval, ptr noundef nonnull align 4 dereferenceable(4) %ref.tmp, ptr noundef nonnull align 4 dereferenceable(4) %ref.tmp1, ptr noundef nonnull align 4 dereferenceable(4) %ref.tmp5)
  %coerce.dive = getelementptr inbounds %class.btVector3, ptr %retval, i32 0, i32 0
  %6 = load { <2 x float>, <2 x float> }, ptr %coerce.dive, align 4
  ret { <2 x float>, <2 x float> } %6
}

; Function Attrs: mustprogress uwtable
define dso_local void @_ZN10btSoftBody6AJoint9TerminateEf(ptr noundef nonnull align 8 dereferenceable(224) %this, float noundef %dt) unnamed_addr #8 align 2 {
entry:
  %this.addr = alloca ptr, align 8
  %dt.addr = alloca float, align 4
  %ref.tmp = alloca %class.btVector3, align 4
  store ptr %this, ptr %this.addr, align 8
  store float %dt, ptr %dt.addr, align 4
  %this1 = load ptr, ptr %this.addr, align 8
  %m_split = getelementptr inbounds %"struct.btSoftBody::Joint", ptr %this1, i32 0, i32 5
  %0 = load float, ptr %m_split, align 8
  %cmp = fcmp ogt float %0, 0.000000e+00
  br i1 %cmp, label %if.then, label %if.end

if.then:                                          ; preds = %entry
  %m_bodies = getelementptr inbounds %"struct.btSoftBody::Joint", ptr %this1, i32 0, i32 1
  %arrayidx = getelementptr inbounds [2 x %"struct.btSoftBody::Body"], ptr %m_bodies, i64 0, i64 0
  %m_sdrift = getelementptr inbounds %"struct.btSoftBody::Joint", ptr %this1, i32 0, i32 7
  %call = call { <2 x float>, <2 x float> } @_ZngRK9btVector3(ptr noundef nonnull align 4 dereferenceable(16) %m_sdrift)
  %coerce.dive = getelementptr inbounds %class.btVector3, ptr %ref.tmp, i32 0, i32 0
  %1 = getelementptr inbounds { <2 x float>, <2 x float> }, ptr %coerce.dive, i32 0, i32 0
  %2 = extractvalue { <2 x float>, <2 x float> } %call, 0
  store <2 x float> %2, ptr %1, align 4
  %3 = getelementptr inbounds { <2 x float>, <2 x float> }, ptr %coerce.dive, i32 0, i32 1
  %4 = extractvalue { <2 x float>, <2 x float> } %call, 1
  store <2 x float> %4, ptr %3, align 4
  call void @_ZNK10btSoftBody4Body14applyDAImpulseERK9btVector3(ptr noundef nonnull align 8 dereferenceable(24) %arrayidx, ptr noundef nonnull align 4 dereferenceable(16) %ref.tmp)
  %m_bodies2 = getelementptr inbounds %"struct.btSoftBody::Joint", ptr %this1, i32 0, i32 1
  %arrayidx3 = getelementptr inbounds [2 x %"struct.btSoftBody::Body"], ptr %m_bodies2, i64 0, i64 1
  %m_sdrift4 = getelementptr inbounds %"struct.btSoftBody::Joint", ptr %this1, i32 0, i32 7
  call void @_ZNK10btSoftBody4Body14applyDAImpulseERK9btVector3(ptr noundef nonnull align 8 dereferenceable(24) %arrayidx3, ptr noundef nonnull align 4 dereferenceable(16) %m_sdrift4)
  br label %if.end

if.end:                                           ; preds = %if.then, %entry
  ret void
}