; Function Attrs: mustprogress uwtable
define dso_local void @_ZN10btSoftBody6AJoint9TerminateEf(ptr noundef nonnull align 8 dereferenceable(224) %this, float %dt) unnamed_addr #3 align 2 {
entry:
  %ref.tmp = alloca %class.btVector3, align 8
  %m_split = getelementptr inbounds i8, ptr %this, i64 96
  %0 = load float, ptr %m_split, align 8
  %cmp = fcmp ogt float %0, 0.000000e+00
  br i1 %cmp, label %if.then, label %if.end

if.then:                                          ; preds = %entry
  %m_bodies = getelementptr inbounds i8, ptr %this, i64 8
  %m_sdrift = getelementptr inbounds i8, ptr %this, i64 116
  %1 = load <2 x float>, ptr %m_sdrift, align 4
  %2 = fneg <2 x float> %1
  %arrayidx7.i = getelementptr inbounds i8, ptr %this, i64 124
  %3 = load float, ptr %arrayidx7.i, align 4
  %fneg8.i = fneg float %3
  %retval.sroa.3.12.vec.insert.i = insertelement <2 x float> <float poison, float 0.000000e+00>, float %fneg8.i, i64 0
  store <2 x float> %2, ptr %ref.tmp, align 8
  %4 = getelementptr inbounds i8, ptr %ref.tmp, i64 8
  store <2 x float> %retval.sroa.3.12.vec.insert.i, ptr %4, align 8
  call void @_ZNK10btSoftBody4Body14applyDAImpulseERK9btVector3(ptr noundef nonnull align 8 dereferenceable(24) %m_bodies, ptr noundef nonnull align 4 dereferenceable(16) %ref.tmp)
  %arrayidx3 = getelementptr inbounds i8, ptr %this, i64 32
  call void @_ZNK10btSoftBody4Body14applyDAImpulseERK9btVector3(ptr noundef nonnull align 8 dereferenceable(24) %arrayidx3, ptr noundef nonnull align 4 dereferenceable(16) %m_sdrift)
  br label %if.end

if.end:                                           ; preds = %if.then, %entry
  ret void
}